target datalayout = "e-m:e-p270:32:32-p271:32:32-p272:64:64-i64:64-i128:128-f80:128-n8:16:32:64-S128"
target triple = "x86_64-pc-linux-gnu"

%"class.arrow::Status" = type { ptr }

; Function Attrs: mustprogress uwtable
define void @_ZN5arrow3ipc20SerializeRecordBatchERKNS_11RecordBatchERKNS0_15IpcWriteOptionsEPNS_2io12OutputStreamE(ptr dead_on_unwind noalias writable sret(%"class.arrow::Status") align 8 %0, ptr noundef nonnull align 8 dereferenceable(32) %1, ptr noundef nonnull align 8 dereferenceable(60) %2, ptr noundef %3) #1 {
  %5 = alloca ptr, align 8
  %6 = alloca ptr, align 8
  %7 = alloca ptr, align 8
  %8 = alloca ptr, align 8
  %9 = alloca i32, align 4
  %10 = alloca i64, align 8
  store ptr %0, ptr %5, align 8
  store ptr %1, ptr %6, align 8, !tbaa !150
  store ptr %2, ptr %7, align 8, !tbaa !55
  store ptr %3, ptr %8, align 8, !tbaa !57
  call void @llvm.lifetime.start.p0(i64 4, ptr %9) #17
  store i32 0, ptr %9, align 4, !tbaa !8
  call void @llvm.lifetime.start.p0(i64 8, ptr %10) #17
  store i64 0, ptr %10, align 8, !tbaa !43
  %11 = load ptr, ptr %6, align 8, !tbaa !150
  %12 = load ptr, ptr %8, align 8, !tbaa !57
  %13 = load ptr, ptr %7, align 8, !tbaa !55
  call void @_ZN5arrow3ipc16WriteRecordBatchERKNS_11RecordBatchElPNS_2io12OutputStreamEPiPlRKNS0_15IpcWriteOptionsE(ptr dead_on_unwind writable sret(%"class.arrow::Status") align 8 %0, ptr noundef nonnull align 8 dereferenceable(32) %11, i64 noundef 0, ptr noundef %12, ptr noundef %9, ptr noundef %10, ptr noundef nonnull align 8 dereferenceable(60) %13)
  call void @llvm.lifetime.end.p0(i64 8, ptr %10) #17
  call void @llvm.lifetime.end.p0(i64 4, ptr %9) #17
  ret void
}