; Function Attrs: mustprogress uwtable
define void @_ZN5arrow3ipc20SerializeRecordBatchERKNS_11RecordBatchERKNS0_15IpcWriteOptionsEPNS_2io12OutputStreamE(ptr dead_on_unwind noalias writable writeonly sret(%"class.arrow::Status") align 8 captures(none) %0, ptr noundef nonnull align 8 dereferenceable(32) %1, ptr noundef nonnull align 8 dereferenceable(60) %2, ptr noundef %3) local_unnamed_addr #1 {
  %5 = alloca i32, align 4
  %6 = alloca i64, align 8
  call void @llvm.lifetime.start.p0(i64 4, ptr nonnull %5) #28
  store i32 0, ptr %5, align 4, !tbaa !130
  call void @llvm.lifetime.start.p0(i64 8, ptr nonnull %6) #28
  call void @_ZN5arrow3ipc16WriteRecordBatchERKNS_11RecordBatchElPNS_2io12OutputStreamEPiPlRKNS0_15IpcWriteOptionsE(ptr dead_on_unwind writable sret(%"class.arrow::Status") align 8 %0, ptr noundef nonnull align 8 dereferenceable(32) %1, i64 noundef 0, ptr noundef %3, ptr noundef nonnull %5, ptr noundef nonnull %6, ptr noundef nonnull align 8 dereferenceable(60) %2)
  call void @llvm.lifetime.end.p0(i64 8, ptr nonnull %6) #28
  call void @llvm.lifetime.end.p0(i64 4, ptr nonnull %5) #28
  ret void
}